target datalayout = "e-m:e-p270:32:32-p271:32:32-p272:64:64-i64:64-i128:128-f80:128-n8:16:32:64-S128"
target triple = "x86_64-pc-linux-gnu"

@_ZN9CDSConfig21_default_archive_pathE = hidden global ptr null, align 8
@UseCompressedOops = external global i8, align 1
@.str.4 = private unnamed_addr constant [24 x i8] c"%s%sclasses_nocoops.jsa\00", align 1
@.str.5 = private unnamed_addr constant [16 x i8] c"%s%sclasses.jsa\00", align 1

; Function Attrs: mustprogress nounwind uwtable
define hidden noundef ptr @_ZN9CDSConfig20default_archive_pathEv() #1 align 2 {
  %1 = alloca [4097 x i8], align 16
  %2 = alloca ptr, align 8
  %3 = alloca i64, align 8
  %4 = alloca i64, align 8
  %5 = alloca i64, align 8
  %6 = load ptr, ptr @_ZN9CDSConfig21_default_archive_pathE, align 8
  %7 = icmp eq ptr %6, null
  br i1 %7, label %8, label %40

8:                                                ; preds = %0
  %9 = getelementptr inbounds [4097 x i8], ptr %1, i64 0, i64 0
  call void @_ZN2os8jvm_pathEPci(ptr noundef %9, i32 noundef 4097)
  %10 = getelementptr inbounds [4097 x i8], ptr %1, i64 0, i64 0
  %11 = call noundef ptr @_ZN2os14file_separatorEv()
  %12 = load i8, ptr %11, align 1
  %13 = sext i8 %12 to i32
  %14 = call noundef ptr @strrchr(ptr noundef %10, i32 noundef %13) #6
  store ptr %14, ptr %2, align 8
  %15 = load ptr, ptr %2, align 8
  %16 = icmp ne ptr %15, null
  br i1 %16, label %17, label %19

17:                                               ; preds = %8
  %18 = load ptr, ptr %2, align 8
  store i8 0, ptr %18, align 1
  br label %19

19:                                               ; preds = %17, %8
  %20 = getelementptr inbounds [4097 x i8], ptr %1, i64 0, i64 0
  %21 = call i64 @strlen(ptr noundef %20) #6
  store i64 %21, ptr %3, align 8
  %22 = call noundef ptr @_ZN2os14file_separatorEv()
  %23 = call i64 @strlen(ptr noundef %22) #6
  store i64 %23, ptr %4, align 8
  %24 = load i64, ptr %3, align 8
  %25 = load i64, ptr %4, align 8
  %26 = add i64 %24, %25
  %27 = add i64 %26, 20
  store i64 %27, ptr %5, align 8
  %28 = load i64, ptr %5, align 8
  %29 = mul i64 %28, 1
  %30 = call noundef ptr @_Z12AllocateHeapm8MEMFLAGSN17AllocFailStrategy13AllocFailEnumE(i64 noundef %29, i8 noundef zeroext 19, i32 noundef 0)
  store ptr %30, ptr @_ZN9CDSConfig21_default_archive_pathE, align 8
  %31 = load ptr, ptr @_ZN9CDSConfig21_default_archive_pathE, align 8
  %32 = load i64, ptr %5, align 8
  %33 = load i8, ptr @UseCompressedOops, align 1
  %34 = trunc i8 %33 to i1
  %35 = xor i1 %34, true
  %36 = select i1 %35, ptr @.str.4, ptr @.str.5
  %37 = getelementptr inbounds [4097 x i8], ptr %1, i64 0, i64 0
  %38 = call noundef ptr @_ZN2os14file_separatorEv()
  %39 = call i32 (ptr, i64, ptr, ...) @jio_snprintf(ptr noundef %31, i64 noundef %32, ptr noundef %36, ptr noundef %37, ptr noundef %38)
  br label %40

40:                                               ; preds = %19, %0
  %41 = load ptr, ptr @_ZN9CDSConfig21_default_archive_pathE, align 8
  ret ptr %41
}