; Function Attrs: mustprogress nounwind uwtable
define hidden noundef ptr @_ZN9CDSConfig20default_archive_pathEv() local_unnamed_addr #2 align 2 {
  %1 = alloca [4097 x i8], align 16
  %2 = load ptr, ptr @_ZN9CDSConfig21_default_archive_pathE, align 8
  %3 = icmp eq ptr %2, null
  br i1 %3, label %4, label %22

4:                                                ; preds = %0
  call void @_ZN2os8jvm_pathEPci(ptr noundef nonnull %1, i32 noundef 4097) #9
  %5 = call noundef ptr @_ZN2os14file_separatorEv() #9
  %6 = load i8, ptr %5, align 1
  %7 = sext i8 %6 to i32
  %8 = call noundef ptr @strrchr(ptr noundef nonnull dereferenceable(1) %1, i32 noundef %7) #10
  %.not = icmp eq ptr %8, null
  br i1 %.not, label %10, label %9

9:                                                ; preds = %4
  store i8 0, ptr %8, align 1
  br label %10

10:                                               ; preds = %9, %4
  %11 = call i64 @strlen(ptr noundef nonnull dereferenceable(1) %1) #10
  %12 = call noundef ptr @_ZN2os14file_separatorEv() #9
  %13 = call i64 @strlen(ptr noundef nonnull dereferenceable(1) %12) #10
  %14 = add i64 %11, 20
  %15 = add i64 %14, %13
  %16 = call noundef ptr @_Z12AllocateHeapm8MEMFLAGSN17AllocFailStrategy13AllocFailEnumE(i64 noundef %15, i8 noundef zeroext 19, i32 noundef 0) #9
  store ptr %16, ptr @_ZN9CDSConfig21_default_archive_pathE, align 8
  %17 = load i8, ptr @UseCompressedOops, align 1
  %18 = trunc i8 %17 to i1
  %19 = select i1 %18, ptr @.str.5, ptr @.str.4
  %20 = call noundef ptr @_ZN2os14file_separatorEv() #9
  %21 = call i32 (ptr, i64, ptr, ...) @jio_snprintf(ptr noundef %16, i64 noundef %15, ptr noundef nonnull %19, ptr noundef nonnull %1, ptr noundef %20) #9
  %.pre = load ptr, ptr @_ZN9CDSConfig21_default_archive_pathE, align 8
  br label %22

22:                                               ; preds = %10, %0
  %23 = phi ptr [ %.pre, %10 ], [ %2, %0 ]
  ret ptr %23
}